; Function Attrs: nounwind sspstrong uwtable
define internal zeroext i1 @machine_get_hmat(ptr noundef %obj, ptr readnone captures(none) %errp) #0 {
entry:
  %call.i = tail call ptr @object_dynamic_cast_assert(ptr noundef %obj, ptr noundef nonnull @.str.225, ptr noundef nonnull @.str.226, i32 noundef 23, ptr noundef nonnull @__func__.MACHINE) #16
  %numa_state = getelementptr inbounds nuw i8, ptr %call.i, i64 336
  %0 = load ptr, ptr %numa_state, align 8
  %hmat_enabled = getelementptr inbounds nuw i8, ptr %0, i64 5
  %1 = load i8, ptr %hmat_enabled, align 1
  %tobool = trunc i8 %1 to i1
  ret i1 %tobool
}